target datalayout = "e-m:e-p270:32:32-p271:32:32-p272:64:64-i64:64-i128:128-f80:128-n8:16:32:64-S128"
target triple = "x86_64-pc-linux-gnu"

%struct._zval_struct = type { %union._zend_value, %union.anon.0, %union.anon.3 }
%union._zend_value = type { i64 }
%union.anon.0 = type { i32 }
%union.anon.3 = type { i32 }
%struct._xmlNode = type { ptr, i32, ptr, ptr, ptr, ptr, ptr, ptr, ptr, ptr, ptr, ptr, ptr, ptr, i16, i16 }

; Function Attrs: nounwind uwtable
define internal i32 @dom_node_parent_get(ptr noundef %0, ptr noundef %1, i1 noundef zeroext %2) #0 {
  %4 = alloca i32, align 4
  %5 = alloca ptr, align 8
  %6 = alloca ptr, align 8
  %7 = alloca i8, align 1
  %8 = alloca ptr, align 8
  %9 = alloca ptr, align 8
  store ptr %0, ptr %5, align 8
  store ptr %1, ptr %6, align 8
  %10 = zext i1 %2 to i8
  store i8 %10, ptr %7, align 1
  %11 = load ptr, ptr %5, align 8
  %12 = call ptr @dom_object_get_node(ptr noundef %11)
  store ptr %12, ptr %8, align 8
  %13 = load ptr, ptr %8, align 8
  %14 = icmp eq ptr %13, null
  br i1 %14, label %15, label %16

15:                                               ; preds = %3
  call void @php_dom_throw_error(i32 noundef 11, i32 noundef 1)
  store i32 -1, ptr %4, align 4
  br label %40

16:                                               ; preds = %3
  %17 = load ptr, ptr %8, align 8
  %18 = getelementptr inbounds %struct._xmlNode, ptr %17, i32 0, i32 5
  %19 = load ptr, ptr %18, align 8
  store ptr %19, ptr %9, align 8
  %20 = load ptr, ptr %9, align 8
  %21 = icmp ne ptr %20, null
  br i1 %21, label %22, label %30

22:                                               ; preds = %16
  %23 = load i8, ptr %7, align 1
  %24 = trunc i8 %23 to i1
  br i1 %24, label %25, label %35

25:                                               ; preds = %22
  %26 = load ptr, ptr %9, align 8
  %27 = getelementptr inbounds %struct._xmlNode, ptr %26, i32 0, i32 1
  %28 = load i32, ptr %27, align 8
  %29 = icmp ne i32 %28, 1
  br i1 %29, label %30, label %35

30:                                               ; preds = %25, %16
  br label %31

31:                                               ; preds = %30
  %32 = load ptr, ptr %6, align 8
  %33 = getelementptr inbounds %struct._zval_struct, ptr %32, i32 0, i32 1
  store i32 1, ptr %33, align 8
  br label %34

34:                                               ; preds = %31
  store i32 0, ptr %4, align 4
  br label %40

35:                                               ; preds = %25, %22
  %36 = load ptr, ptr %9, align 8
  %37 = load ptr, ptr %6, align 8
  %38 = load ptr, ptr %5, align 8
  %39 = call zeroext i1 @php_dom_create_object(ptr noundef %36, ptr noundef %37, ptr noundef %38)
  store i32 0, ptr %4, align 4
  br label %40

40:                                               ; preds = %35, %34, %15
  %41 = load i32, ptr %4, align 4
  ret i32 %41
}

; Function Attrs: nounwind uwtable
define hidden i32 @dom_node_parent_node_read(ptr noundef %0, ptr noundef %1) #0 {
  %3 = alloca ptr, align 8
  %4 = alloca ptr, align 8
  store ptr %0, ptr %3, align 8
  store ptr %1, ptr %4, align 8
  %5 = load ptr, ptr %3, align 8
  %6 = load ptr, ptr %4, align 8
  %7 = call i32 @dom_node_parent_get(ptr noundef %5, ptr noundef %6, i1 noundef zeroext false)
  ret i32 %7
}