; Function Attrs: nounwind uwtable
define hidden noundef i32 @dom_node_parent_node_read(ptr noundef %0, ptr noundef %1) local_unnamed_addr #0 {
  %3 = tail call ptr @dom_object_get_node(ptr noundef %0) #12
  %4 = icmp eq ptr %3, null
  br i1 %4, label %5, label %6

5:                                                ; preds = %2
  tail call void @php_dom_throw_error(i32 noundef 11, i32 noundef 1) #12
  br label %dom_node_parent_get.exit

6:                                                ; preds = %2
  %7 = getelementptr inbounds i8, ptr %3, i64 40
  %8 = load ptr, ptr %7, align 8
  %.not.i = icmp eq ptr %8, null
  br i1 %.not.i, label %11, label %9

9:                                                ; preds = %6
  %10 = tail call zeroext i1 @php_dom_create_object(ptr noundef nonnull %8, ptr noundef %1, ptr noundef %0) #12
  br label %dom_node_parent_get.exit

11:                                               ; preds = %6
  %12 = getelementptr inbounds i8, ptr %1, i64 8
  store i32 1, ptr %12, align 8
  br label %dom_node_parent_get.exit

dom_node_parent_get.exit:                         ; preds = %5, %11, %9
  %.0.i = phi i32 [ -1, %5 ], [ 0, %11 ], [ 0, %9 ]
  ret i32 %.0.i
}